; Function Attrs: nounwind uwtable
define internal void @free_decoder(ptr noundef %0) #2 {
  %2 = icmp eq ptr %0, null
  br i1 %2, label %OSSL_DECODER_free.exit, label %3

3:                                                ; preds = %1
  %4 = getelementptr inbounds nuw i8, ptr %0, i64 40
  %5 = atomicrmw sub ptr %4, i32 1 release, align 4
  %6 = icmp eq i32 %5, 1
  br i1 %6, label %CRYPTO_DOWN_REF.exit.thread.i, label %CRYPTO_DOWN_REF.exit.i

CRYPTO_DOWN_REF.exit.thread.i:                    ; preds = %3
  fence acquire
  br label %8

CRYPTO_DOWN_REF.exit.i:                           ; preds = %3
  %7 = icmp sgt i32 %5, 1
  br i1 %7, label %OSSL_DECODER_free.exit, label %8

8:                                                ; preds = %CRYPTO_DOWN_REF.exit.i, %CRYPTO_DOWN_REF.exit.thread.i
  %9 = getelementptr inbounds nuw i8, ptr %0, i64 16
  %10 = load ptr, ptr %9, align 8, !tbaa !3
  tail call void @CRYPTO_free(ptr noundef %10, ptr noundef nonnull @.str, i32 noundef 70) #8
  %11 = getelementptr inbounds nuw i8, ptr %0, i64 32
  %12 = load ptr, ptr %11, align 8, !tbaa !15
  tail call void @ossl_property_free(ptr noundef %12) #8
  %13 = load ptr, ptr %0, align 8, !tbaa !16
  tail call void @ossl_provider_free(ptr noundef %13) #8
  tail call void @CRYPTO_free(ptr noundef nonnull %0, ptr noundef nonnull @.str, i32 noundef 74) #8
  br label %OSSL_DECODER_free.exit

OSSL_DECODER_free.exit:                           ; preds = %1, %CRYPTO_DOWN_REF.exit.i, %8
  ret void
}